target datalayout = "e-m:e-p270:32:32-p271:32:32-p272:64:64-i64:64-i128:128-f80:128-n8:16:32:64-S128"
target triple = "x86_64-pc-linux-gnu"

%struct.H5HF_free_section_t = type { %struct.H5FS_section_info_t, %union.anon }
%struct.H5FS_section_info_t = type { i64, i64, i32, i32 }
%union.anon = type { %struct.anon.1 }
%struct.anon.1 = type { %union.anon.2, i32, i32, i32, ptr, i32, i64, i32, i32, i32, ptr, i32, ptr }
%union.anon.2 = type { ptr }
%struct.anon.0 = type { ptr, i32, i32, i32, i8 }

@H5HF_init_g = external global i8, align 1
@H5_libterm_g = external global i8, align 1
@.str.54 = private unnamed_addr constant [12 x i8] c"%*s%-*s %u\0A\00", align 1
@.str.55 = private unnamed_addr constant [1 x i8] zeroinitializer, align 1
@.str.56 = private unnamed_addr constant [5 x i8] c"Row:\00", align 1
@.str.57 = private unnamed_addr constant [8 x i8] c"Column:\00", align 1
@.str.58 = private unnamed_addr constant [19 x i8] c"Number of entries:\00", align 1
@.str.59 = private unnamed_addr constant [9 x i8] c"%*s%-*s\0A\00", align 1
@.str.60 = private unnamed_addr constant [29 x i8] c"Underlying indirect section:\00", align 1

; Function Attrs: nounwind uwtable
define internal i32 @H5HF__sect_indirect_debug(ptr noundef %0, ptr noundef %1, i32 noundef %2, i32 noundef %3) #0 {
  %5 = alloca ptr, align 8
  %6 = alloca ptr, align 8
  %7 = alloca i32, align 4
  %8 = alloca i32, align 4
  store ptr %0, ptr %5, align 8, !tbaa !23
  store ptr %1, ptr %6, align 8, !tbaa !78
  store i32 %2, ptr %7, align 4, !tbaa !11
  store i32 %3, ptr %8, align 4, !tbaa !11
  %9 = load i8, ptr @H5HF_init_g, align 1, !tbaa !13, !range !15, !noundef !16
  %10 = trunc i8 %9 to i1
  br i1 %10, label %15, label %11

11:                                               ; preds = %4
  %12 = load i8, ptr @H5_libterm_g, align 1, !tbaa !13, !range !15, !noundef !16
  %13 = trunc i8 %12 to i1
  %14 = xor i1 %13, true
  br label %15

15:                                               ; preds = %11, %4
  %16 = phi i1 [ true, %4 ], [ %14, %11 ]
  %17 = xor i1 %16, true
  %18 = xor i1 %17, true
  %19 = zext i1 %18 to i32
  %20 = sext i32 %19 to i64
  %21 = call i64 @llvm.expect.i64(i64 %20, i64 1)
  %22 = icmp ne i64 %21, 0
  br i1 %22, label %23, label %48

23:                                               ; preds = %15
  %24 = load ptr, ptr %6, align 8, !tbaa !78
  %25 = load i32, ptr %7, align 4, !tbaa !11
  %26 = load i32, ptr %8, align 4, !tbaa !11
  %27 = load ptr, ptr %5, align 8, !tbaa !23
  %28 = getelementptr inbounds nuw %struct.H5HF_free_section_t, ptr %27, i32 0, i32 1
  %29 = getelementptr inbounds nuw %struct.anon.1, ptr %28, i32 0, i32 1
  %30 = load i32, ptr %29, align 8, !tbaa !63
  %31 = call i32 (ptr, ptr, ...) @fprintf(ptr noundef %24, ptr noundef @.str.54, i32 noundef %25, ptr noundef @.str.55, i32 noundef %26, ptr noundef @.str.56, i32 noundef %30) #7
  %32 = load ptr, ptr %6, align 8, !tbaa !78
  %33 = load i32, ptr %7, align 4, !tbaa !11
  %34 = load i32, ptr %8, align 4, !tbaa !11
  %35 = load ptr, ptr %5, align 8, !tbaa !23
  %36 = getelementptr inbounds nuw %struct.H5HF_free_section_t, ptr %35, i32 0, i32 1
  %37 = getelementptr inbounds nuw %struct.anon.1, ptr %36, i32 0, i32 2
  %38 = load i32, ptr %37, align 4, !tbaa !63
  %39 = call i32 (ptr, ptr, ...) @fprintf(ptr noundef %32, ptr noundef @.str.54, i32 noundef %33, ptr noundef @.str.55, i32 noundef %34, ptr noundef @.str.57, i32 noundef %38) #7
  %40 = load ptr, ptr %6, align 8, !tbaa !78
  %41 = load i32, ptr %7, align 4, !tbaa !11
  %42 = load i32, ptr %8, align 4, !tbaa !11
  %43 = load ptr, ptr %5, align 8, !tbaa !23
  %44 = getelementptr inbounds nuw %struct.H5HF_free_section_t, ptr %43, i32 0, i32 1
  %45 = getelementptr inbounds nuw %struct.anon.1, ptr %44, i32 0, i32 3
  %46 = load i32, ptr %45, align 8, !tbaa !63
  %47 = call i32 (ptr, ptr, ...) @fprintf(ptr noundef %40, ptr noundef @.str.54, i32 noundef %41, ptr noundef @.str.55, i32 noundef %42, ptr noundef @.str.58, i32 noundef %46) #7
  br label %48

48:                                               ; preds = %23, %15
  ret i32 0
}

; Function Attrs: nounwind uwtable
define internal i32 @H5HF__sect_row_debug(ptr noundef %0, ptr noundef %1, i32 noundef %2, i32 noundef %3) #0 {
  %5 = alloca ptr, align 8
  %6 = alloca ptr, align 8
  %7 = alloca i32, align 4
  %8 = alloca i32, align 4
  %9 = alloca ptr, align 8
  store ptr %0, ptr %5, align 8, !tbaa !34
  store ptr %1, ptr %6, align 8, !tbaa !78
  store i32 %2, ptr %7, align 4, !tbaa !11
  store i32 %3, ptr %8, align 4, !tbaa !11
  call void @llvm.lifetime.start.p0(i64 8, ptr %9) #7
  %10 = load ptr, ptr %5, align 8, !tbaa !34
  store ptr %10, ptr %9, align 8, !tbaa !23
  %11 = load i8, ptr @H5HF_init_g, align 1, !tbaa !13, !range !15, !noundef !16
  %12 = trunc i8 %11 to i1
  br i1 %12, label %17, label %13

13:                                               ; preds = %4
  %14 = load i8, ptr @H5_libterm_g, align 1, !tbaa !13, !range !15, !noundef !16
  %15 = trunc i8 %14 to i1
  %16 = xor i1 %15, true
  br label %17

17:                                               ; preds = %13, %4
  %18 = phi i1 [ true, %4 ], [ %16, %13 ]
  %19 = xor i1 %18, true
  %20 = xor i1 %19, true
  %21 = zext i1 %20 to i32
  %22 = sext i32 %21 to i64
  %23 = call i64 @llvm.expect.i64(i64 %22, i64 1)
  %24 = icmp ne i64 %23, 0
  br i1 %24, label %25, label %78

25:                                               ; preds = %17
  %26 = load ptr, ptr %6, align 8, !tbaa !78
  %27 = load i32, ptr %7, align 4, !tbaa !11
  %28 = load i32, ptr %8, align 4, !tbaa !11
  %29 = load ptr, ptr %9, align 8, !tbaa !23
  %30 = getelementptr inbounds nuw %struct.H5HF_free_section_t, ptr %29, i32 0, i32 1
  %31 = getelementptr inbounds nuw %struct.anon.0, ptr %30, i32 0, i32 1
  %32 = load i32, ptr %31, align 8, !tbaa !63
  %33 = call i32 (ptr, ptr, ...) @fprintf(ptr noundef %26, ptr noundef @.str.54, i32 noundef %27, ptr noundef @.str.55, i32 noundef %28, ptr noundef @.str.56, i32 noundef %32) #7
  %34 = load ptr, ptr %6, align 8, !tbaa !78
  %35 = load i32, ptr %7, align 4, !tbaa !11
  %36 = load i32, ptr %8, align 4, !tbaa !11
  %37 = load ptr, ptr %9, align 8, !tbaa !23
  %38 = getelementptr inbounds nuw %struct.H5HF_free_section_t, ptr %37, i32 0, i32 1
  %39 = getelementptr inbounds nuw %struct.anon.0, ptr %38, i32 0, i32 2
  %40 = load i32, ptr %39, align 4, !tbaa !63
  %41 = call i32 (ptr, ptr, ...) @fprintf(ptr noundef %34, ptr noundef @.str.54, i32 noundef %35, ptr noundef @.str.55, i32 noundef %36, ptr noundef @.str.57, i32 noundef %40) #7
  %42 = load ptr, ptr %6, align 8, !tbaa !78
  %43 = load i32, ptr %7, align 4, !tbaa !11
  %44 = load i32, ptr %8, align 4, !tbaa !11
  %45 = load ptr, ptr %9, align 8, !tbaa !23
  %46 = getelementptr inbounds nuw %struct.H5HF_free_section_t, ptr %45, i32 0, i32 1
  %47 = getelementptr inbounds nuw %struct.anon.0, ptr %46, i32 0, i32 3
  %48 = load i32, ptr %47, align 8, !tbaa !63
  %49 = call i32 (ptr, ptr, ...) @fprintf(ptr noundef %42, ptr noundef @.str.54, i32 noundef %43, ptr noundef @.str.55, i32 noundef %44, ptr noundef @.str.58, i32 noundef %48) #7
  %50 = load ptr, ptr %9, align 8, !tbaa !23
  %51 = getelementptr inbounds nuw %struct.H5HF_free_section_t, ptr %50, i32 0, i32 0
  %52 = getelementptr inbounds nuw %struct.H5FS_section_info_t, ptr %51, i32 0, i32 2
  %53 = load i32, ptr %52, align 8, !tbaa !27
  %54 = icmp eq i32 %53, 1
  br i1 %54, label %55, label %77

55:                                               ; preds = %25
  %56 = load ptr, ptr %6, align 8, !tbaa !78
  %57 = load i32, ptr %7, align 4, !tbaa !11
  %58 = load i32, ptr %8, align 4, !tbaa !11
  %59 = call i32 (ptr, ptr, ...) @fprintf(ptr noundef %56, ptr noundef @.str.59, i32 noundef %57, ptr noundef @.str.55, i32 noundef %58, ptr noundef @.str.60) #7
  %60 = load ptr, ptr %9, align 8, !tbaa !23
  %61 = getelementptr inbounds nuw %struct.H5HF_free_section_t, ptr %60, i32 0, i32 1
  %62 = getelementptr inbounds nuw %struct.anon.0, ptr %61, i32 0, i32 0
  %63 = load ptr, ptr %62, align 8, !tbaa !63
  %64 = load ptr, ptr %6, align 8, !tbaa !78
  %65 = load i32, ptr %7, align 4, !tbaa !11
  %66 = add nsw i32 %65, 3
  %67 = load i32, ptr %8, align 4, !tbaa !11
  %68 = sub nsw i32 %67, 3
  %69 = icmp sgt i32 0, %68
  br i1 %69, label %70, label %71

70:                                               ; preds = %55
  br label %74

71:                                               ; preds = %55
  %72 = load i32, ptr %8, align 4, !tbaa !11
  %73 = sub nsw i32 %72, 3
  br label %74

74:                                               ; preds = %71, %70
  %75 = phi i32 [ 0, %70 ], [ %73, %71 ]
  %76 = call i32 @H5HF__sect_indirect_debug(ptr noundef %63, ptr noundef %64, i32 noundef %66, i32 noundef %75)
  br label %77

77:                                               ; preds = %74, %25
  br label %78

78:                                               ; preds = %77, %17
  call void @llvm.lifetime.end.p0(i64 8, ptr %9) #7
  ret i32 0
}