; Function Attrs: nofree nounwind uwtable
define internal noundef i32 @H5HF__sect_row_debug(ptr noundef readonly captures(none) %0, ptr noundef captures(none) %1, i32 noundef %2, i32 noundef %3) #5 {
  %5 = load i8, ptr @H5HF_init_g, align 1, !tbaa !3, !range !7, !noundef !8
  %6 = trunc nuw i8 %5 to i1
  %7 = load i8, ptr @H5_libterm_g, align 1, !range !7
  %8 = trunc nuw i8 %7 to i1
  %9 = xor i1 %8, true
  %10 = select i1 %6, i1 true, i1 %9
  br i1 %10, label %11, label %H5HF__sect_indirect_debug.exit, !prof !9

11:                                               ; preds = %4
  %12 = getelementptr inbounds nuw i8, ptr %0, i64 32
  %13 = load i32, ptr %12, align 8, !tbaa !26
  %14 = tail call i32 (ptr, ptr, ...) @fprintf(ptr noundef %1, ptr noundef nonnull @.str.54, i32 noundef %2, ptr noundef nonnull @.str.55, i32 noundef %3, ptr noundef nonnull @.str.56, i32 noundef %13) #13
  %15 = getelementptr inbounds nuw i8, ptr %0, i64 36
  %16 = load i32, ptr %15, align 4, !tbaa !26
  %17 = tail call i32 (ptr, ptr, ...) @fprintf(ptr noundef %1, ptr noundef nonnull @.str.54, i32 noundef %2, ptr noundef nonnull @.str.55, i32 noundef %3, ptr noundef nonnull @.str.57, i32 noundef %16) #13
  %18 = getelementptr inbounds nuw i8, ptr %0, i64 40
  %19 = load i32, ptr %18, align 8, !tbaa !26
  %20 = tail call i32 (ptr, ptr, ...) @fprintf(ptr noundef %1, ptr noundef nonnull @.str.54, i32 noundef %2, ptr noundef nonnull @.str.55, i32 noundef %3, ptr noundef nonnull @.str.58, i32 noundef %19) #13
  %21 = getelementptr inbounds nuw i8, ptr %0, i64 16
  %22 = load i32, ptr %21, align 8, !tbaa !20
  %23 = icmp eq i32 %22, 1
  br i1 %23, label %24, label %H5HF__sect_indirect_debug.exit

24:                                               ; preds = %11
  %25 = tail call i32 (ptr, ptr, ...) @fprintf(ptr noundef %1, ptr noundef nonnull @.str.59, i32 noundef %2, ptr noundef nonnull @.str.55, i32 noundef %3, ptr noundef nonnull @.str.60) #13
  %26 = load i8, ptr @H5HF_init_g, align 1, !tbaa !3, !range !7, !noundef !8
  %27 = trunc nuw i8 %26 to i1
  %28 = load i8, ptr @H5_libterm_g, align 1, !range !7
  %29 = trunc nuw i8 %28 to i1
  %30 = xor i1 %29, true
  %31 = select i1 %27, i1 true, i1 %30
  br i1 %31, label %32, label %H5HF__sect_indirect_debug.exit, !prof !9

32:                                               ; preds = %24
  %33 = tail call i32 @llvm.smax.i32(i32 %3, i32 3)
  %34 = add nsw i32 %33, -3
  %35 = add nsw i32 %2, 3
  %36 = getelementptr inbounds nuw i8, ptr %0, i64 24
  %37 = load ptr, ptr %36, align 8, !tbaa !26
  %38 = getelementptr inbounds nuw i8, ptr %37, i64 32
  %39 = load i32, ptr %38, align 8, !tbaa !26
  %40 = tail call i32 (ptr, ptr, ...) @fprintf(ptr noundef %1, ptr noundef nonnull @.str.54, i32 noundef range(i32 -2147483645, -2147483648) %35, ptr noundef nonnull @.str.55, i32 noundef range(i32 -2147483648, 2147483645) %34, ptr noundef nonnull @.str.56, i32 noundef %39) #13
  %41 = getelementptr inbounds nuw i8, ptr %37, i64 36
  %42 = load i32, ptr %41, align 4, !tbaa !26
  %43 = tail call i32 (ptr, ptr, ...) @fprintf(ptr noundef %1, ptr noundef nonnull @.str.54, i32 noundef range(i32 -2147483645, -2147483648) %35, ptr noundef nonnull @.str.55, i32 noundef range(i32 -2147483648, 2147483645) %34, ptr noundef nonnull @.str.57, i32 noundef %42) #13
  %44 = getelementptr inbounds nuw i8, ptr %37, i64 40
  %45 = load i32, ptr %44, align 8, !tbaa !26
  %46 = tail call i32 (ptr, ptr, ...) @fprintf(ptr noundef %1, ptr noundef nonnull @.str.54, i32 noundef range(i32 -2147483645, -2147483648) %35, ptr noundef nonnull @.str.55, i32 noundef range(i32 -2147483648, 2147483645) %34, ptr noundef nonnull @.str.58, i32 noundef %45) #13
  br label %H5HF__sect_indirect_debug.exit

H5HF__sect_indirect_debug.exit:                   ; preds = %32, %24, %11, %4
  ret i32 0
}